target datalayout = "e-m:e-p270:32:32-p271:32:32-p272:64:64-i64:64-i128:128-f80:128-n8:16:32:64-S128"
target triple = "x86_64-unknown-linux-gnu"

%"class.llvh::ArrayRef" = type { ptr, i64 }
%"struct.hermes::hbc::BytecodeFileHeader" = type { i64, i32, [20 x i8], i32, i32, i32, i32, i32, i32, i32, i32, i32, i32, i32, i32, i32, i32, i32, i32, i32, i32, i32, %"union.hermes::hbc::BytecodeOptions", [19 x i8] }
%"union.hermes::hbc::BytecodeOptions" = type { %struct.anon }
%struct.anon = type { i8 }

; Function Attrs: mustprogress nounwind uwtable
define internal noundef ptr @_ZN6hermes3hbc12_GLOBAL__N_114alignCheckCastINS0_18BytecodeFileHeaderEEEPKT_PKh(ptr noundef %buf) #0 {
entry:
  %buf.addr = alloca ptr, align 8
  store ptr %buf, ptr %buf.addr, align 8
  %0 = load ptr, ptr %buf.addr, align 8
  ret ptr %0
}

; Function Attrs: mustprogress nounwind uwtable
define linkonce_odr hidden void @_ZN4llvh8ArrayRefIhEC2EPKhS3_(ptr noundef nonnull align 8 dereferenceable(16) %this, ptr noundef %begin, ptr noundef %end) unnamed_addr #0 comdat align 2 {
entry:
  %this.addr = alloca ptr, align 8
  %begin.addr = alloca ptr, align 8
  %end.addr = alloca ptr, align 8
  store ptr %this, ptr %this.addr, align 8
  store ptr %begin, ptr %begin.addr, align 8
  store ptr %end, ptr %end.addr, align 8
  %this1 = load ptr, ptr %this.addr, align 8
  %Data = getelementptr inbounds %"class.llvh::ArrayRef", ptr %this1, i32 0, i32 0
  %0 = load ptr, ptr %begin.addr, align 8
  store ptr %0, ptr %Data, align 8
  %Length = getelementptr inbounds %"class.llvh::ArrayRef", ptr %this1, i32 0, i32 1
  %1 = load ptr, ptr %end.addr, align 8
  %2 = load ptr, ptr %begin.addr, align 8
  %sub.ptr.lhs.cast = ptrtoint ptr %1 to i64
  %sub.ptr.rhs.cast = ptrtoint ptr %2 to i64
  %sub.ptr.sub = sub i64 %sub.ptr.lhs.cast, %sub.ptr.rhs.cast
  store i64 %sub.ptr.sub, ptr %Length, align 8
  ret void
}

; Function Attrs: mustprogress nounwind uwtable
define linkonce_odr hidden noundef i64 @_ZNK4llvh8ArrayRefIhE4sizeEv(ptr noundef nonnull align 8 dereferenceable(16) %this) #0 comdat align 2 {
entry:
  %this.addr = alloca ptr, align 8
  store ptr %this, ptr %this.addr, align 8
  %this1 = load ptr, ptr %this.addr, align 8
  %Length = getelementptr inbounds %"class.llvh::ArrayRef", ptr %this1, i32 0, i32 1
  %0 = load i64, ptr %Length, align 8
  ret i64 %0
}

; Function Attrs: mustprogress nounwind uwtable
define internal noundef ptr @_ZN6hermes3hbc12_GLOBAL__N_18castDataINS0_18BytecodeFileHeaderEEEPKT_RPKh(ptr noundef nonnull align 8 dereferenceable(8) %buf) #0 {
entry:
  %buf.addr = alloca ptr, align 8
  %ret = alloca ptr, align 8
  store ptr %buf, ptr %buf.addr, align 8
  %0 = load ptr, ptr %buf.addr, align 8
  %1 = load ptr, ptr %0, align 8
  %call = call noundef ptr @_ZN6hermes3hbc12_GLOBAL__N_114alignCheckCastINS0_18BytecodeFileHeaderEEEPKT_PKh(ptr noundef %1)
  store ptr %call, ptr %ret, align 8
  %2 = load ptr, ptr %buf.addr, align 8
  %3 = load ptr, ptr %2, align 8
  %add.ptr = getelementptr inbounds i8, ptr %3, i64 128
  store ptr %add.ptr, ptr %2, align 8
  %4 = load ptr, ptr %ret, align 8
  ret ptr %4
}

; Function Attrs: mustprogress nounwind uwtable
define linkonce_odr hidden noundef ptr @_ZNK4llvh8ArrayRefIhE4dataEv(ptr noundef nonnull align 8 dereferenceable(16) %this) #0 comdat align 2 {
entry:
  %this.addr = alloca ptr, align 8
  store ptr %this, ptr %this.addr, align 8
  %this1 = load ptr, ptr %this.addr, align 8
  %Data = getelementptr inbounds %"class.llvh::ArrayRef", ptr %this1, i32 0, i32 0
  %0 = load ptr, ptr %Data, align 8
  ret ptr %0
}

; Function Attrs: mustprogress nounwind uwtable
define hidden { ptr, i64 } @_ZN6hermes3hbc20BCProviderFromBuffer23getEpilogueFromBytecodeEN4llvh8ArrayRefIhEE(ptr %buffer.coerce0, i64 %buffer.coerce1) #0 align 2 {
entry:
  %retval = alloca %"class.llvh::ArrayRef", align 8
  %buffer = alloca %"class.llvh::ArrayRef", align 8
  %p = alloca ptr, align 8
  %fileHeader = alloca ptr, align 8
  %begin = alloca ptr, align 8
  %end = alloca ptr, align 8
  %0 = getelementptr inbounds { ptr, i64 }, ptr %buffer, i32 0, i32 0
  store ptr %buffer.coerce0, ptr %0, align 8
  %1 = getelementptr inbounds { ptr, i64 }, ptr %buffer, i32 0, i32 1
  store i64 %buffer.coerce1, ptr %1, align 8
  %call = call noundef ptr @_ZNK4llvh8ArrayRefIhE4dataEv(ptr noundef nonnull align 8 dereferenceable(16) %buffer)
  store ptr %call, ptr %p, align 8
  %call1 = call noundef ptr @_ZN6hermes3hbc12_GLOBAL__N_18castDataINS0_18BytecodeFileHeaderEEEPKT_RPKh(ptr noundef nonnull align 8 dereferenceable(8) %p)
  store ptr %call1, ptr %fileHeader, align 8
  %call2 = call noundef ptr @_ZNK4llvh8ArrayRefIhE4dataEv(ptr noundef nonnull align 8 dereferenceable(16) %buffer)
  %2 = load ptr, ptr %fileHeader, align 8
  %fileLength = getelementptr inbounds %"struct.hermes::hbc::BytecodeFileHeader", ptr %2, i32 0, i32 3
  %3 = load i32, ptr %fileLength, align 1
  %idx.ext = zext i32 %3 to i64
  %add.ptr = getelementptr inbounds i8, ptr %call2, i64 %idx.ext
  store ptr %add.ptr, ptr %begin, align 8
  %call3 = call noundef ptr @_ZNK4llvh8ArrayRefIhE4dataEv(ptr noundef nonnull align 8 dereferenceable(16) %buffer)
  %call4 = call noundef i64 @_ZNK4llvh8ArrayRefIhE4sizeEv(ptr noundef nonnull align 8 dereferenceable(16) %buffer)
  %add.ptr5 = getelementptr inbounds i8, ptr %call3, i64 %call4
  store ptr %add.ptr5, ptr %end, align 8
  %4 = load ptr, ptr %begin, align 8
  %5 = load ptr, ptr %end, align 8
  call void @_ZN4llvh8ArrayRefIhEC2EPKhS3_(ptr noundef nonnull align 8 dereferenceable(16) %retval, ptr noundef %4, ptr noundef %5)
  %6 = load { ptr, i64 }, ptr %retval, align 8
  ret { ptr, i64 } %6
}