; Function Attrs: mustprogress nofree norecurse nosync nounwind willreturn memory(argmem: read) uwtable
define hidden { ptr, i64 } @_ZN6hermes3hbc20BCProviderFromBuffer23getEpilogueFromBytecodeEN4llvh8ArrayRefIhEE(ptr %buffer.coerce0, i64 %buffer.coerce1) local_unnamed_addr #7 align 2 {
entry:
  %fileLength = getelementptr inbounds i8, ptr %buffer.coerce0, i64 32
  %0 = load i32, ptr %fileLength, align 1
  %idx.ext = zext i32 %0 to i64
  %add.ptr = getelementptr inbounds i8, ptr %buffer.coerce0, i64 %idx.ext
  %add.ptr5 = getelementptr inbounds i8, ptr %buffer.coerce0, i64 %buffer.coerce1
  %sub.ptr.lhs.cast.i = ptrtoint ptr %add.ptr5 to i64
  %sub.ptr.rhs.cast.i = ptrtoint ptr %add.ptr to i64
  %sub.ptr.sub.i = sub i64 %sub.ptr.lhs.cast.i, %sub.ptr.rhs.cast.i
  %.fca.0.insert = insertvalue { ptr, i64 } poison, ptr %add.ptr, 0
  %.fca.1.insert = insertvalue { ptr, i64 } %.fca.0.insert, i64 %sub.ptr.sub.i, 1
  ret { ptr, i64 } %.fca.1.insert
}